liblxqt.so.0:_ZN4LXQt10GridLayout10invalidateEv
liblxqt.so.0:_ZN4LXQt10GridLayout10setStretchE6QFlagsINS0_11StretchFlagEE
liblxqt.so.0:_ZN4LXQt10GridLayout11qt_metacallEN11QMetaObject4CallEiPPv
liblxqt.so.0:_ZN4LXQt10GridLayout11qt_metacastEPKc
liblxqt.so.0:_ZN4LXQt10GridLayout11setGeometryERK5QRect
liblxqt.so.0:_ZN4LXQt10GridLayout11setRowCountEi
liblxqt.so.0:_ZN4LXQt10GridLayout12setDirectionENS0_9DirectionE
liblxqt.so.0:_ZN4LXQt10GridLayout14setColumnCountEi
liblxqt.so.0:_ZN4LXQt10GridLayout16setCellFixedSizeE5QSize
liblxqt.so.0:_ZN4LXQt10GridLayout17setCellFixedWidthEi
liblxqt.so.0:_ZN4LXQt10GridLayout18setCellFixedHeightEi
liblxqt.so.0:_ZN4LXQt10GridLayout18setCellMaximumSizeE5QSize
liblxqt.so.0:_ZN4LXQt10GridLayout18setCellMinimumSizeE5QSize
liblxqt.so.0:_ZN4LXQt10GridLayout19setCellMaximumWidthEi
liblxqt.so.0:_ZN4LXQt10GridLayout19setCellMinimumWidthEi
liblxqt.so.0:_ZN4LXQt10GridLayout20setCellMaximumHeightEi
liblxqt.so.0:_ZN4LXQt10GridLayout20setCellMinimumHeightEi
liblxqt.so.0:_ZN4LXQt10GridLayout6takeAtEi
liblxqt.so.0:_ZN4LXQt10GridLayout7addItemEP11QLayoutItem
liblxqt.so.0:_ZN4LXQt10GridLayout8moveItemEiib
liblxqt.so.0:_ZN4LXQt10GridLayoutC1EP7QWidget
liblxqt.so.0:_ZN4LXQt10GridLayoutC2EP7QWidget
liblxqt.so.0:_ZN4LXQt10GridLayoutD0Ev
liblxqt.so.0:_ZN4LXQt10GridLayoutD1Ev
liblxqt.so.0:_ZN4LXQt10GridLayoutD2Ev
liblxqt.so.0:_ZN4LXQt10PluginInfo4loadERK7QString
liblxqt.so.0:_ZN4LXQt10PluginInfo6searchERK11QStringListRK7QStringS6_
liblxqt.so.0:_ZN4LXQt10PluginInfo6searchERK7QStringS3_S3_
liblxqt.so.0:_ZN4LXQt10PluginInfoC1Ev
liblxqt.so.0:_ZN4LXQt10PluginInfoC2Ev
liblxqt.so.0:_ZN4LXQt10Translator15translatePluginERK7QStringS3_
liblxqt.so.0:_ZN4LXQt10Translator16translateLibraryERK7QString
liblxqt.so.0:_ZN4LXQt10Translator20translateApplicationERK7QString
liblxqt.so.0:_ZN4LXQt10Translator22translationSearchPathsEv
liblxqt.so.0:_ZN4LXQt10Translator25setTranslationSearchPathsERK11QStringList
liblxqt.so.0:_ZN4LXQt11Application10unixSignalEi
liblxqt.so.0:_ZN4LXQt11Application11qt_metacallEN11QMetaObject4CallEiPPv
liblxqt.so.0:_ZN4LXQt11Application11qt_metacastEPKc
liblxqt.so.0:_ZN4LXQt11Application11updateThemeEv
liblxqt.so.0:_ZN4LXQt11Application12themeChangedEv
liblxqt.so.0:_ZN4LXQt11Application19listenToUnixSignalsERK5QListIiE
liblxqt.so.0:_ZN4LXQt11ApplicationC1ERiPPc
liblxqt.so.0:_ZN4LXQt11ApplicationC1ERiPPcb
liblxqt.so.0:_ZN4LXQt11ApplicationC2ERiPPc
liblxqt.so.0:_ZN4LXQt11ApplicationC2ERiPPcb
liblxqt.so.0:_ZN4LXQt11ScreenSaver10lockScreenEv
liblxqt.so.0:_ZN4LXQt11ScreenSaver11qt_metacallEN11QMetaObject4CallEiPPv
liblxqt.so.0:_ZN4LXQt11ScreenSaver11qt_metacastEPKc
liblxqt.so.0:_ZN4LXQt11ScreenSaver16availableActionsEv
liblxqt.so.0:_ZN4LXQt11ScreenSaver4doneEv
liblxqt.so.0:_ZN4LXQt11ScreenSaver9activatedEv
liblxqt.so.0:_ZN4LXQt11ScreenSaverC1EP7QObject
liblxqt.so.0:_ZN4LXQt11ScreenSaverC2EP7QObject
liblxqt.so.0:_ZN4LXQt11ScreenSaverD0Ev
liblxqt.so.0:_ZN4LXQt11ScreenSaverD1Ev
liblxqt.so.0:_ZN4LXQt11ScreenSaverD2Ev
liblxqt.so.0:_ZN4LXQt12ConfigDialog10closeEventEP11QCloseEvent
liblxqt.so.0:_ZN4LXQt12ConfigDialog10setButtonsE6QFlagsIN16QDialogButtonBox14StandardButtonEE
liblxqt.so.0:_ZN4LXQt12ConfigDialog11qt_metacallEN11QMetaObject4CallEiPPv
liblxqt.so.0:_ZN4LXQt12ConfigDialog11qt_metacastEPKc
liblxqt.so.0:_ZN4LXQt12ConfigDialog12enableButtonEN16QDialogButtonBox14StandardButtonEb
liblxqt.so.0:_ZN4LXQt12ConfigDialog4saveEv
liblxqt.so.0:_ZN4LXQt12ConfigDialog5eventEP6QEvent
liblxqt.so.0:_ZN4LXQt12ConfigDialog5resetEv
liblxqt.so.0:_ZN4LXQt12ConfigDialog7addPageEP7QWidgetRK7QStringRK11QStringList
liblxqt.so.0:_ZN4LXQt12ConfigDialog7addPageEP7QWidgetRK7QStringS5_
liblxqt.so.0:_ZN4LXQt12ConfigDialog7clickedEN16QDialogButtonBox14StandardButtonE
liblxqt.so.0:_ZN4LXQt12ConfigDialog8showPageEP7QWidget
liblxqt.so.0:_ZN4LXQt12ConfigDialog8showPageERK7QString
liblxqt.so.0:_ZN4LXQt12ConfigDialogC1ERK7QStringPNS_8SettingsEP7QWidget
liblxqt.so.0:_ZN4LXQt12ConfigDialogC2ERK7QStringPNS_8SettingsEP7QWidget
liblxqt.so.0:_ZN4LXQt12ConfigDialogD0Ev
liblxqt.so.0:_ZN4LXQt12ConfigDialogD1Ev
liblxqt.so.0:_ZN4LXQt12ConfigDialogD2Ev
liblxqt.so.0:_ZN4LXQt12HtmlDelegate11qt_metacallEN11QMetaObject4CallEiPPv
liblxqt.so.0:_ZN4LXQt12HtmlDelegate11qt_metacastEPKc
liblxqt.so.0:_ZN4LXQt12HtmlDelegateC1E5QSizeP7QObject
liblxqt.so.0:_ZN4LXQt12HtmlDelegateC2E5QSizeP7QObject
liblxqt.so.0:_ZN4LXQt12HtmlDelegateD0Ev
liblxqt.so.0:_ZN4LXQt12HtmlDelegateD1Ev
liblxqt.so.0:_ZN4LXQt12HtmlDelegateD2Ev
liblxqt.so.0:_ZN4LXQt12Notification10clearHintsEv
liblxqt.so.0:_ZN4LXQt12Notification10serverInfoEv
liblxqt.so.0:_ZN4LXQt12Notification10setActionsERK11QStringListi
liblxqt.so.0:_ZN4LXQt12Notification10setSummaryERK7QString
liblxqt.so.0:_ZN4LXQt12Notification10setTimeoutEi
liblxqt.so.0:_ZN4LXQt12Notification11qt_metacallEN11QMetaObject4CallEiPPv
liblxqt.so.0:_ZN4LXQt12Notification11qt_metacastEPKc
liblxqt.so.0:_ZN4LXQt12Notification14setUrgencyHintENS0_7UrgencyE
liblxqt.so.0:_ZN4LXQt12Notification15actionActivatedEi
liblxqt.so.0:_ZN4LXQt12Notification15getCapabilitiesEv
liblxqt.so.0:_ZN4LXQt12Notification15queryServerInfoEv
liblxqt.so.0:_ZN4LXQt12Notification15serverInfoReadyEv
liblxqt.so.0:_ZN4LXQt12Notification18notificationClosedENS0_11CloseReasonE
liblxqt.so.0:_ZN4LXQt12Notification5closeEv
liblxqt.so.0:_ZN4LXQt12Notification6notifyERK7QStringS3_S3_
liblxqt.so.0:_ZN4LXQt12Notification6updateEv
liblxqt.so.0:_ZN4LXQt12Notification7setBodyERK7QString
liblxqt.so.0:_ZN4LXQt12Notification7setHintERK7QStringRK8QVariant
liblxqt.so.0:_ZN4LXQt12Notification7setIconERK7QString
liblxqt.so.0:_ZN4LXQt12NotificationC1ERK7QStringP7QObject
liblxqt.so.0:_ZN4LXQt12NotificationC2ERK7QStringP7QObject
liblxqt.so.0:_ZN4LXQt12NotificationD0Ev
liblxqt.so.0:_ZN4LXQt12NotificationD1Ev
liblxqt.so.0:_ZN4LXQt12NotificationD2Ev
liblxqt.so.0:_ZN4LXQt12PowerManager11qt_metacallEN11QMetaObject4CallEiPPv
liblxqt.so.0:_ZN4LXQt12PowerManager11qt_metacastEPKc
liblxqt.so.0:_ZN4LXQt12PowerManager13suspendFailedEv
liblxqt.so.0:_ZN4LXQt12PowerManager15hibernateFailedEv
liblxqt.so.0:_ZN4LXQt12PowerManager16availableActionsEv
liblxqt.so.0:_ZN4LXQt12PowerManager6logoutEv
liblxqt.so.0:_ZN4LXQt12PowerManager6rebootEv
liblxqt.so.0:_ZN4LXQt12PowerManager7suspendEv
liblxqt.so.0:_ZN4LXQt12PowerManager8shutdownEv
liblxqt.so.0:_ZN4LXQt12PowerManager9hibernateEv
liblxqt.so.0:_ZN4LXQt12PowerManagerC1EP7QObjectb
liblxqt.so.0:_ZN4LXQt12PowerManagerC2EP7QObjectb
liblxqt.so.0:_ZN4LXQt12PowerManagerD0Ev
liblxqt.so.0:_ZN4LXQt12PowerManagerD1Ev
liblxqt.so.0:_ZN4LXQt12PowerManagerD2Ev
liblxqt.so.0:_ZN4LXQt13ProgramFinder11programNameERK7QString
liblxqt.so.0:_ZN4LXQt13ProgramFinder12findProgramsERK11QStringList
liblxqt.so.0:_ZN4LXQt13ProgramFinder13programExistsERK7QString
liblxqt.so.0:_ZN4LXQt13RotatedWidget10enterEventEP6QEvent
liblxqt.so.0:_ZN4LXQt13RotatedWidget10leaveEventEP6QEvent
liblxqt.so.0:_ZN4LXQt13RotatedWidget10paintEventEP11QPaintEvent
liblxqt.so.0:_ZN4LXQt13RotatedWidget10wheelEventEP11QWheelEvent
liblxqt.so.0:_ZN4LXQt13RotatedWidget11qt_metacallEN11QMetaObject4CallEiPPv
liblxqt.so.0:_ZN4LXQt13RotatedWidget11qt_metacastEPKc
liblxqt.so.0:_ZN4LXQt13RotatedWidget11resizeEventEP12QResizeEvent
liblxqt.so.0:_ZN4LXQt13RotatedWidget14mouseMoveEventEP11QMouseEvent
liblxqt.so.0:_ZN4LXQt13RotatedWidget15mousePressEventEP11QMouseEvent
liblxqt.so.0:_ZN4LXQt13RotatedWidget17adjustContentSizeEv
liblxqt.so.0:_ZN4LXQt13RotatedWidget17mouseReleaseEventEP11QMouseEvent
liblxqt.so.0:_ZN4LXQt13RotatedWidget21mouseDoubleClickEventEP11QMouseEvent
liblxqt.so.0:_ZN4LXQt13RotatedWidget9setOriginEN2Qt6CornerE
liblxqt.so.0:_ZN4LXQt13RotatedWidgetC1ER7QWidgetPS1_6QFlagsIN2Qt10WindowTypeEE
liblxqt.so.0:_ZN4LXQt13RotatedWidgetC2ER7QWidgetPS1_6QFlagsIN2Qt10WindowTypeEE
liblxqt.so.0:_ZN4LXQt13SettingsCache14loadToSettingsEv
liblxqt.so.0:_ZN4LXQt13SettingsCache16loadFromSettingsEv
liblxqt.so.0:_ZN4LXQt13SettingsCacheC1EP9QSettings
liblxqt.so.0:_ZN4LXQt13SettingsCacheC1ER9QSettings
liblxqt.so.0:_ZN4LXQt13SettingsCacheC2EP9QSettings
liblxqt.so.0:_ZN4LXQt13SettingsCacheC2ER9QSettings
liblxqt.so.0:_ZN4LXQt14AutostartEntry10setEnabledEb
liblxqt.so.0:_ZN4LXQt14AutostartEntry11removeLocalEv
liblxqt.so.0:_ZN4LXQt14AutostartEntry6commitEv
liblxqt.so.0:_ZN4LXQt14AutostartEntry7setFileERK14XdgDesktopFile
liblxqt.so.0:_ZN4LXQt14AutostartEntryC1ERK7QString
liblxqt.so.0:_ZN4LXQt14AutostartEntryC1Ev
liblxqt.so.0:_ZN4LXQt14AutostartEntryC2ERK7QString
liblxqt.so.0:_ZN4LXQt14AutostartEntryC2Ev
liblxqt.so.0:_ZN4LXQt14GlobalSettings11fileChangedEv
liblxqt.so.0:_ZN4LXQt14GlobalSettings11qt_metacallEN11QMetaObject4CallEiPPv
liblxqt.so.0:_ZN4LXQt14GlobalSettings11qt_metacastEPKc
liblxqt.so.0:_ZN4LXQt14GlobalSettings16iconThemeChangedEv
liblxqt.so.0:_ZN4LXQt14GlobalSettings16lxqtThemeChangedEv
liblxqt.so.0:_ZN4LXQt14GlobalSettingsC1Ev
liblxqt.so.0:_ZN4LXQt14GlobalSettingsC2Ev
liblxqt.so.0:_ZN4LXQt14GlobalSettingsD0Ev
liblxqt.so.0:_ZN4LXQt14GlobalSettingsD1Ev
liblxqt.so.0:_ZN4LXQt14GlobalSettingsD2Ev
liblxqt.so.0:_ZN4LXQt14VirtualBackEnd11qt_metacallEN11QMetaObject4CallEiPPv
liblxqt.so.0:_ZN4LXQt14VirtualBackEnd11qt_metacastEPKc
liblxqt.so.0:_ZN4LXQt14VirtualBackEnd12getBacklightEv
liblxqt.so.0:_ZN4LXQt14VirtualBackEnd12setBacklightEi
liblxqt.so.0:_ZN4LXQt14VirtualBackEnd14isBacklightOffEv
liblxqt.so.0:_ZN4LXQt14VirtualBackEnd15getMaxBacklightEv
liblxqt.so.0:_ZN4LXQt14VirtualBackEnd16backlightChangedEi
liblxqt.so.0:_ZN4LXQt14VirtualBackEnd20isBacklightAvailableEv
liblxqt.so.0:_ZN4LXQt14VirtualBackEndC1EP7QObject
liblxqt.so.0:_ZN4LXQt14VirtualBackEndC2EP7QObject
liblxqt.so.0:_ZN4LXQt16PageSelectWidget11qt_metacallEN11QMetaObject4CallEiPPv
liblxqt.so.0:_ZN4LXQt16PageSelectWidget11qt_metacastEPKc
liblxqt.so.0:_ZN4LXQt16PageSelectWidget18updateMaxTextWidthEv
liblxqt.so.0:_ZN4LXQt16PageSelectWidget5eventEP6QEvent
liblxqt.so.0:_ZN4LXQt16PageSelectWidgetC1EP7QWidget
liblxqt.so.0:_ZN4LXQt16PageSelectWidgetC2EP7QWidget
liblxqt.so.0:_ZN4LXQt16PageSelectWidgetD0Ev
liblxqt.so.0:_ZN4LXQt16PageSelectWidgetD1Ev
liblxqt.so.0:_ZN4LXQt16PageSelectWidgetD2Ev
liblxqt.so.0:_ZN4LXQt17SingleApplication11qt_metacallEN11QMetaObject4CallEiPPv
liblxqt.so.0:_ZN4LXQt17SingleApplication11qt_metacastEPKc
liblxqt.so.0:_ZN4LXQt17SingleApplication14activateWindowEv
liblxqt.so.0:_ZN4LXQt17SingleApplication19setActivationWindowEP7QWidget
liblxqt.so.0:_ZN4LXQt17SingleApplicationC1ERiPPcNS0_12StartOptionsE
liblxqt.so.0:_ZN4LXQt17SingleApplicationC2ERiPPcNS0_12StartOptionsE
liblxqt.so.0:_ZN4LXQt17SingleApplicationD0Ev
liblxqt.so.0:_ZN4LXQt17SingleApplicationD1Ev
liblxqt.so.0:_ZN4LXQt17SingleApplicationD2Ev
liblxqt.so.0:_ZN4LXQt26ConfigDialogCmdLineOptions14setCommandLineEP18QCommandLineParser
liblxqt.so.0:_ZN4LXQt26ConfigDialogCmdLineOptions7processER18QCommandLineParser
liblxqt.so.0:_ZN4LXQt26ConfigDialogCmdLineOptionsC1Ev
liblxqt.so.0:_ZN4LXQt26ConfigDialogCmdLineOptionsC2Ev
liblxqt.so.0:_ZN4LXQt26ConfigDialogCmdLineOptionsD1Ev
liblxqt.so.0:_ZN4LXQt26ConfigDialogCmdLineOptionsD2Ev
liblxqt.so.0:_ZN4LXQt5Power10monitorOffEv
liblxqt.so.0:_ZN4LXQt5Power11qt_metacallEN11QMetaObject4CallEiPPv
liblxqt.so.0:_ZN4LXQt5Power11qt_metacastEPKc
liblxqt.so.0:_ZN4LXQt5Power15showLeaveDialogEv
liblxqt.so.0:_ZN4LXQt5Power6logoutEv
liblxqt.so.0:_ZN4LXQt5Power6rebootEv
liblxqt.so.0:_ZN4LXQt5Power7suspendEv
liblxqt.so.0:_ZN4LXQt5Power8doActionENS0_6ActionE
liblxqt.so.0:_ZN4LXQt5Power8shutdownEv
liblxqt.so.0:_ZN4LXQt5Power9hibernateEv
liblxqt.so.0:_ZN4LXQt5PowerC1EP7QObject
liblxqt.so.0:_ZN4LXQt5PowerC1EbP7QObject
liblxqt.so.0:_ZN4LXQt5PowerC2EP7QObject
liblxqt.so.0:_ZN4LXQt5PowerC2EbP7QObject
liblxqt.so.0:_ZN4LXQt5PowerD0Ev
liblxqt.so.0:_ZN4LXQt5PowerD1Ev
liblxqt.so.0:_ZN4LXQt5PowerD2Ev
liblxqt.so.0:_ZN4LXQt8Settings11fileChangedEv
liblxqt.so.0:_ZN4LXQt8Settings11qt_metacallEN11QMetaObject4CallEiPPv
liblxqt.so.0:_ZN4LXQt8Settings11qt_metacastEPKc
liblxqt.so.0:_ZN4LXQt8Settings12_fileChangedERK7QString
liblxqt.so.0:_ZN4LXQt8Settings14addWatchedFileERK7QString
liblxqt.so.0:_ZN4LXQt8Settings14globalSettingsEv
liblxqt.so.0:_ZN4LXQt8Settings15settingsChangedEv
liblxqt.so.0:_ZN4LXQt8Settings17setLocalizedValueERK7QStringRK8QVariant
liblxqt.so.0:_ZN4LXQt8Settings20settingsChangedByAppEv
liblxqt.so.0:_ZN4LXQt8Settings27settingsChangedFromExternalEv
liblxqt.so.0:_ZN4LXQt8Settings5eventEP6QEvent
liblxqt.so.0:_ZN4LXQt8SettingsC1EPK9QSettingsRK7QStringP7QObject
liblxqt.so.0:_ZN4LXQt8SettingsC1ERK7QStringN9QSettings6FormatEP7QObject
liblxqt.so.0:_ZN4LXQt8SettingsC1ERK7QStringP7QObject
liblxqt.so.0:_ZN4LXQt8SettingsC1ERK9QSettingsRK7QStringP7QObject
liblxqt.so.0:_ZN4LXQt8SettingsC2EPK9QSettingsRK7QStringP7QObject
liblxqt.so.0:_ZN4LXQt8SettingsC2ERK7QStringN9QSettings6FormatEP7QObject
liblxqt.so.0:_ZN4LXQt8SettingsC2ERK7QStringP7QObject
liblxqt.so.0:_ZN4LXQt8SettingsC2ERK9QSettingsRK7QStringP7QObject
liblxqt.so.0:_ZN4LXQt8SettingsD0Ev
liblxqt.so.0:_ZN4LXQt8SettingsD1Ev
liblxqt.so.0:_ZN4LXQt8SettingsD2Ev
liblxqt.so.0:_ZN4LXQt9Backlight11qt_metacallEN11QMetaObject4CallEiPPv
liblxqt.so.0:_ZN4LXQt9Backlight11qt_metacastEPKc
liblxqt.so.0:_ZN4LXQt9Backlight12getBacklightEv
liblxqt.so.0:_ZN4LXQt9Backlight12setBacklightEi
liblxqt.so.0:_ZN4LXQt9Backlight14isBacklightOffEv
liblxqt.so.0:_ZN4LXQt9Backlight15getMaxBacklightEv
liblxqt.so.0:_ZN4LXQt9Backlight16backlightChangedEi
liblxqt.so.0:_ZN4LXQt9Backlight20backlightChangedSlotEi
liblxqt.so.0:_ZN4LXQt9Backlight20isBacklightAvailableEv
liblxqt.so.0:_ZN4LXQt9BacklightC1EP7QObject
liblxqt.so.0:_ZN4LXQt9BacklightC2EP7QObject
liblxqt.so.0:_ZN4LXQt9BacklightD0Ev
liblxqt.so.0:_ZN4LXQt9BacklightD1Ev
liblxqt.so.0:_ZN4LXQt9BacklightD2Ev
liblxqt.so.0:_ZN4LXQt9LXQtTheme12currentThemeEv
liblxqt.so.0:_ZN4LXQt9LXQtTheme9allThemesEv
liblxqt.so.0:_ZN4LXQt9LXQtThemeC1ERK7QString
liblxqt.so.0:_ZN4LXQt9LXQtThemeC1ERKS0_
liblxqt.so.0:_ZN4LXQt9LXQtThemeC1Ev
liblxqt.so.0:_ZN4LXQt9LXQtThemeC2ERK7QString
liblxqt.so.0:_ZN4LXQt9LXQtThemeC2ERKS0_
liblxqt.so.0:_ZN4LXQt9LXQtThemeC2Ev
liblxqt.so.0:_ZN4LXQt9LXQtThemeD1Ev
liblxqt.so.0:_ZN4LXQt9LXQtThemeD2Ev
liblxqt.so.0:_ZN4LXQt9LXQtThemeaSERKS0_
liblxqt.so.0:_ZNK4LXQt10GridLayout10metaObjectEv
liblxqt.so.0:_ZNK4LXQt10GridLayout11columnCountEv
liblxqt.so.0:_ZNK4LXQt10GridLayout15cellMaximumSizeEv
liblxqt.so.0:_ZNK4LXQt10GridLayout15cellMinimumSizeEv
liblxqt.so.0:_ZNK4LXQt10GridLayout16occupiedGeometryEv
liblxqt.so.0:_ZNK4LXQt10GridLayout22animatedMoveInProgressEv
liblxqt.so.0:_ZNK4LXQt10GridLayout5countEv
liblxqt.so.0:_ZNK4LXQt10GridLayout6itemAtEi
liblxqt.so.0:_ZNK4LXQt10GridLayout7stretchEv
liblxqt.so.0:_ZNK4LXQt10GridLayout8rowCountEv
liblxqt.so.0:_ZNK4LXQt10GridLayout8sizeHintEv
liblxqt.so.0:_ZNK4LXQt10GridLayout9directionEv
liblxqt.so.0:_ZNK4LXQt10PluginInfo11loadLibraryERK7QString
liblxqt.so.0:_ZNK4LXQt10PluginInfo7isValidEv
liblxqt.so.0:_ZNK4LXQt11Application10metaObjectEv
liblxqt.so.0:_ZNK4LXQt11ScreenSaver10metaObjectEv
liblxqt.so.0:_ZNK4LXQt12ConfigDialog10metaObjectEv
liblxqt.so.0:_ZNK4LXQt12HtmlDelegate10metaObjectEv
liblxqt.so.0:_ZNK4LXQt12HtmlDelegate5paintEP8QPainterRK20QStyleOptionViewItemRK11QModelIndex
liblxqt.so.0:_ZNK4LXQt12HtmlDelegate8sizeHintERK20QStyleOptionViewItemRK11QModelIndex
liblxqt.so.0:_ZNK4LXQt12Notification10metaObjectEv
liblxqt.so.0:_ZNK4LXQt12PowerManager10metaObjectEv
liblxqt.so.0:_ZNK4LXQt13RotatedWidget10metaObjectEv
liblxqt.so.0:_ZNK4LXQt13RotatedWidget12adjustedSizeE5QSize
liblxqt.so.0:_ZNK4LXQt13RotatedWidget13adjustedPointE7QPointF
liblxqt.so.0:_ZNK4LXQt13RotatedWidget15minimumSizeHintEv
liblxqt.so.0:_ZNK4LXQt13RotatedWidget6originEv
liblxqt.so.0:_ZNK4LXQt13RotatedWidget7contentEv
liblxqt.so.0:_ZNK4LXQt13RotatedWidget8sizeHintEv
liblxqt.so.0:_ZNK4LXQt14AutostartEntry4fileEv
liblxqt.so.0:_ZNK4LXQt14AutostartEntry4nameEv
liblxqt.so.0:_ZNK4LXQt14AutostartEntry9isEnabledEv
liblxqt.so.0:_ZNK4LXQt14GlobalSettings10metaObjectEv
liblxqt.so.0:_ZNK4LXQt14VirtualBackEnd10metaObjectEv
liblxqt.so.0:_ZNK4LXQt16PageSelectWidget10metaObjectEv
liblxqt.so.0:_ZNK4LXQt16PageSelectWidget12maxTextWidthEv
liblxqt.so.0:_ZNK4LXQt16PageSelectWidget15minimumSizeHintEv
liblxqt.so.0:_ZNK4LXQt16PageSelectWidget16viewportSizeHintEv
liblxqt.so.0:_ZNK4LXQt16PageSelectWidget8sizeHintEv
liblxqt.so.0:_ZNK4LXQt17SingleApplication10metaObjectEv
liblxqt.so.0:_ZNK4LXQt17SingleApplication16activationWindowEv
liblxqt.so.0:_ZNK4LXQt26ConfigDialogCmdLineOptions4pageEv
liblxqt.so.0:_ZNK4LXQt5Power10canSuspendEv
liblxqt.so.0:_ZNK4LXQt5Power10metaObjectEv
liblxqt.so.0:_ZNK4LXQt5Power11canShutdownEv
liblxqt.so.0:_ZNK4LXQt5Power12canHibernateEv
liblxqt.so.0:_ZNK4LXQt5Power13canMonitorOffEv
liblxqt.so.0:_ZNK4LXQt5Power18canShowLeaveDialogEv
liblxqt.so.0:_ZNK4LXQt5Power9canActionENS0_6ActionE
liblxqt.so.0:_ZNK4LXQt5Power9canLogoutEv
liblxqt.so.0:_ZNK4LXQt5Power9canRebootEv
liblxqt.so.0:_ZNK4LXQt8Settings10metaObjectEv
liblxqt.so.0:_ZNK4LXQt8Settings14localizedValueERK7QStringRK8QVariant
liblxqt.so.0:_ZNK4LXQt9Backlight10metaObjectEv
liblxqt.so.0:_ZNK4LXQt9LXQtTheme12previewImageEv
liblxqt.so.0:_ZNK4LXQt9LXQtTheme17desktopBackgroundEi
liblxqt.so.0:_ZNK4LXQt9LXQtTheme3qssERK7QString
liblxqt.so.0:_ZNK4LXQt9LXQtTheme4nameEv
liblxqt.so.0:_ZNK4LXQt9LXQtTheme4pathEv
liblxqt.so.0:_ZNK4LXQt9LXQtTheme7isValidEv
liblxqt.so.0:_ZThn16_N4LXQt10GridLayout10invalidateEv
liblxqt.so.0:_ZThn16_N4LXQt10GridLayout11setGeometryERK5QRect
liblxqt.so.0:_ZThn16_N4LXQt10GridLayoutD0Ev
liblxqt.so.0:_ZThn16_N4LXQt10GridLayoutD1Ev
liblxqt.so.0:_ZThn16_N4LXQt12ConfigDialogD0Ev
liblxqt.so.0:_ZThn16_N4LXQt12ConfigDialogD1Ev
liblxqt.so.0:_ZThn16_N4LXQt16PageSelectWidgetD0Ev
liblxqt.so.0:_ZThn16_N4LXQt16PageSelectWidgetD1Ev
liblxqt.so.0:_ZThn16_NK4LXQt10GridLayout8sizeHintEv
